; Function Attrs: mustprogress uwtable
define internal void @"_ZNSt17_Function_handlerIFSt10unique_ptrIN3gmx25ICommandLineOptionsModuleESt14default_deleteIS2_EEvEZNS1_35TrajectoryAnalysisCommandLineRunner9runAsMainEiPPcRKSt8functionIFS0_INS1_24TrajectoryAnalysisModuleES3_ISB_EEvEEE3$_0E9_M_invokeERKSt9_Any_data"(ptr dead_on_unwind noalias writable writeonly sret(%"class.std::unique_ptr") align 8 captures(none) %0, ptr noundef nonnull readonly align 8 captures(none) dereferenceable(16) %1) #0 align 2 personality ptr @__gxx_personality_v0 {
  %3 = alloca %"class.std::unique_ptr.4", align 8
  %.val = load ptr, ptr %1, align 8, !tbaa !11
  call void @llvm.lifetime.start.p0(i64 8, ptr nonnull %3), !noalias !14
  %4 = getelementptr inbounds nuw i8, ptr %.val, i64 16
  %5 = load ptr, ptr %4, align 8, !tbaa !4, !noalias !19
  %.not.i.i.i.i.i = icmp eq ptr %5, null
  br i1 %.not.i.i.i.i.i, label %6, label %_ZNKSt8functionIFSt10unique_ptrIN3gmx24TrajectoryAnalysisModuleESt14default_deleteIS2_EEvEEclEv.exit.i.i.i

6:                                                ; preds = %2
  tail call void @_ZSt25__throw_bad_function_callv() #20, !noalias !19
  unreachable

_ZNKSt8functionIFSt10unique_ptrIN3gmx24TrajectoryAnalysisModuleESt14default_deleteIS2_EEvEEclEv.exit.i.i.i: ; preds = %2
  %7 = getelementptr inbounds nuw i8, ptr %.val, i64 24
  %8 = load ptr, ptr %7, align 8, !tbaa !9, !noalias !19
  call void %8(ptr dead_on_unwind nonnull writable sret(%"class.std::unique_ptr.4") align 8 %3, ptr noundef nonnull align 8 dereferenceable(32) %.val), !noalias !24
  invoke void @_ZN3gmx35TrajectoryAnalysisCommandLineRunner12createModuleESt10unique_ptrINS_24TrajectoryAnalysisModuleESt14default_deleteIS2_EE(ptr dead_on_unwind writable sret(%"class.std::unique_ptr") align 8 %0, ptr noundef nonnull %3)
          to label %9 unwind label %14

9:                                                ; preds = %_ZNKSt8functionIFSt10unique_ptrIN3gmx24TrajectoryAnalysisModuleESt14default_deleteIS2_EEvEEclEv.exit.i.i.i
  %10 = load ptr, ptr %3, align 8, !tbaa !25, !noalias !24
  %.not.i.i.i.i = icmp eq ptr %10, null
  br i1 %.not.i.i.i.i, label %"_ZSt10__invoke_rISt10unique_ptrIN3gmx25ICommandLineOptionsModuleESt14default_deleteIS2_EERZNS1_35TrajectoryAnalysisCommandLineRunner9runAsMainEiPPcRKSt8functionIFS0_INS1_24TrajectoryAnalysisModuleES3_ISA_EEvEEE3$_0JEENSt9enable_ifIX16is_invocable_r_vIT_T0_DpT1_EESK_E4typeEOSL_DpOSM_.exit", label %_ZNKSt14default_deleteIN3gmx24TrajectoryAnalysisModuleEEclEPS1_.exit.i.i.i.i

_ZNKSt14default_deleteIN3gmx24TrajectoryAnalysisModuleEEclEPS1_.exit.i.i.i.i: ; preds = %9
  %11 = load ptr, ptr %10, align 8, !tbaa !27, !noalias !24
  %12 = getelementptr inbounds nuw i8, ptr %11, i64 8
  %13 = load ptr, ptr %12, align 8, !noalias !24
  call void %13(ptr noundef nonnull align 8 dereferenceable(16) %10) #16, !noalias !24
  br label %"_ZSt10__invoke_rISt10unique_ptrIN3gmx25ICommandLineOptionsModuleESt14default_deleteIS2_EERZNS1_35TrajectoryAnalysisCommandLineRunner9runAsMainEiPPcRKSt8functionIFS0_INS1_24TrajectoryAnalysisModuleES3_ISA_EEvEEE3$_0JEENSt9enable_ifIX16is_invocable_r_vIT_T0_DpT1_EESK_E4typeEOSL_DpOSM_.exit"

14:                                               ; preds = %_ZNKSt8functionIFSt10unique_ptrIN3gmx24TrajectoryAnalysisModuleESt14default_deleteIS2_EEvEEclEv.exit.i.i.i
  %15 = landingpad { ptr, i32 }
          cleanup
  %16 = load ptr, ptr %3, align 8, !tbaa !25, !noalias !24
  %.not.i2.i.i.i = icmp eq ptr %16, null
  br i1 %.not.i2.i.i.i, label %_ZNSt10unique_ptrIN3gmx24TrajectoryAnalysisModuleESt14default_deleteIS1_EED2Ev.exit4.i.i.i, label %_ZNKSt14default_deleteIN3gmx24TrajectoryAnalysisModuleEEclEPS1_.exit.i3.i.i.i

_ZNKSt14default_deleteIN3gmx24TrajectoryAnalysisModuleEEclEPS1_.exit.i3.i.i.i: ; preds = %14
  %17 = load ptr, ptr %16, align 8, !tbaa !27, !noalias !24
  %18 = getelementptr inbounds nuw i8, ptr %17, i64 8
  %19 = load ptr, ptr %18, align 8, !noalias !24
  call void %19(ptr noundef nonnull align 8 dereferenceable(16) %16) #16, !noalias !24
  br label %_ZNSt10unique_ptrIN3gmx24TrajectoryAnalysisModuleESt14default_deleteIS1_EED2Ev.exit4.i.i.i

_ZNSt10unique_ptrIN3gmx24TrajectoryAnalysisModuleESt14default_deleteIS1_EED2Ev.exit4.i.i.i: ; preds = %_ZNKSt14default_deleteIN3gmx24TrajectoryAnalysisModuleEEclEPS1_.exit.i3.i.i.i, %14
  resume { ptr, i32 } %15

"_ZSt10__invoke_rISt10unique_ptrIN3gmx25ICommandLineOptionsModuleESt14default_deleteIS2_EERZNS1_35TrajectoryAnalysisCommandLineRunner9runAsMainEiPPcRKSt8functionIFS0_INS1_24TrajectoryAnalysisModuleES3_ISA_EEvEEE3$_0JEENSt9enable_ifIX16is_invocable_r_vIT_T0_DpT1_EESK_E4typeEOSL_DpOSM_.exit": ; preds = %9, %_ZNKSt14default_deleteIN3gmx24TrajectoryAnalysisModuleEEclEPS1_.exit.i.i.i.i
  call void @llvm.lifetime.end.p0(i64 8, ptr nonnull %3), !noalias !14
  ret void
}